target datalayout = "e-m:e-p270:32:32-p271:32:32-p272:64:64-i64:64-i128:128-f80:128-n8:16:32:64-S128"
target triple = "x86_64-pc-linux-gnu"

@.str.4 = private unnamed_addr constant [66 x i8] c"\0AidaSlCrank_dns: Slider-Crank DAE serial example problem for IDA\0A\00", align 1
@.str.5 = private unnamed_addr constant [52 x i8] c"Linear solver: DENSE, Jacobian is computed by IDA.\0A\00", align 1
@.str.6 = private unnamed_addr constant [46 x i8] c"Tolerance parameters:  rtol = %g   atol = %g\0A\00", align 1
@.str.7 = private unnamed_addr constant [73 x i8] c"-----------------------------------------------------------------------\0A\00", align 1
@.str.8 = private unnamed_addr constant [43 x i8] c"  t            y1          y2           y3\00", align 1
@.str.9 = private unnamed_addr constant [23 x i8] c"      | nst  k      h\0A\00", align 1

; Function Attrs: nounwind uwtable
define internal void @PrintHeader(double noundef %0, double noundef %1, ptr noundef %2) #0 {
  %4 = alloca double, align 8
  %5 = alloca double, align 8
  %6 = alloca ptr, align 8
  store double %0, ptr %4, align 8, !tbaa !35
  store double %1, ptr %5, align 8, !tbaa !35
  store ptr %2, ptr %6, align 8, !tbaa !26
  %7 = call i32 (ptr, ...) @printf(ptr noundef @.str.4)
  %8 = call i32 (ptr, ...) @printf(ptr noundef @.str.5)
  %9 = load double, ptr %4, align 8, !tbaa !35
  %10 = load double, ptr %5, align 8, !tbaa !35
  %11 = call i32 (ptr, ...) @printf(ptr noundef @.str.6, double noundef %9, double noundef %10)
  %12 = call i32 (ptr, ...) @printf(ptr noundef @.str.7)
  %13 = call i32 (ptr, ...) @printf(ptr noundef @.str.8)
  %14 = call i32 (ptr, ...) @printf(ptr noundef @.str.9)
  %15 = call i32 (ptr, ...) @printf(ptr noundef @.str.7)
  ret void
}