; Function Attrs: nofree nounwind uwtable
define internal fastcc void @PrintHeader() unnamed_addr #4 {
  %puts = tail call i32 @puts(ptr nonnull dereferenceable(1) @str)
  %puts2 = tail call i32 @puts(ptr nonnull dereferenceable(1) @str.1)
  %1 = tail call i32 (ptr, ...) @printf(ptr noundef nonnull dereferenceable(1) @.str.6, double noundef 0x3EB0C6F7A0B5ED8D, double noundef 0x3EB0C6F7A0B5ED8D)
  %puts3 = tail call i32 @puts(ptr nonnull dereferenceable(1) @str.4)
  %2 = tail call i32 (ptr, ...) @printf(ptr noundef nonnull dereferenceable(1) @.str.8)
  %puts4 = tail call i32 @puts(ptr nonnull dereferenceable(1) @str.3)
  %puts5 = tail call i32 @puts(ptr nonnull dereferenceable(1) @str.4)
  ret void
}